target datalayout = "e-m:e-p270:32:32-p271:32:32-p272:64:64-i64:64-i128:128-f80:128-n8:16:32:64-S128"
target triple = "x86_64-pc-linux-gnu"

%struct._object = type { %union.anon, ptr }
%union.anon = type { i64 }
%struct.anon = type { i32, i32 }

@_Py_NoneStruct = external global %struct._object, align 8
@.str.37 = private unnamed_addr constant [15 x i8] c"Oz#|OOOOOOOOOO\00", align 1

; Function Attrs: alwaysinline nounwind uwtable
define internal void @Py_INCREF(ptr noundef %0) #3 {
  %2 = alloca ptr, align 8
  %3 = alloca i32, align 4
  %4 = alloca i32, align 4
  store ptr %0, ptr %2, align 8, !tbaa !3
  call void @llvm.lifetime.start.p0(i64 4, ptr %3) #10
  %5 = load ptr, ptr %2, align 8, !tbaa !3
  %6 = getelementptr inbounds nuw %struct._object, ptr %5, i32 0, i32 0
  %7 = getelementptr inbounds nuw %struct.anon, ptr %6, i32 0, i32 0
  %8 = load i32, ptr %7, align 8, !tbaa !20
  store i32 %8, ptr %3, align 4, !tbaa !21
  %9 = load i32, ptr %3, align 4, !tbaa !21
  %10 = icmp slt i32 %9, 0
  br i1 %10, label %11, label %12

11:                                               ; preds = %1
  store i32 1, ptr %4, align 4
  br label %18

12:                                               ; preds = %1
  %13 = load i32, ptr %3, align 4, !tbaa !21
  %14 = add i32 %13, 1
  %15 = load ptr, ptr %2, align 8, !tbaa !3
  %16 = getelementptr inbounds nuw %struct._object, ptr %15, i32 0, i32 0
  %17 = getelementptr inbounds nuw %struct.anon, ptr %16, i32 0, i32 0
  store i32 %14, ptr %17, align 8, !tbaa !20
  store i32 0, ptr %4, align 4
  br label %18

18:                                               ; preds = %12, %11
  call void @llvm.lifetime.end.p0(i64 4, ptr %3) #10
  %19 = load i32, ptr %4, align 4
  switch i32 %19, label %21 [
    i32 0, label %20
    i32 1, label %20
  ]

20:                                               ; preds = %18, %18
  ret void

21:                                               ; preds = %18
  unreachable
}

; Function Attrs: inlinehint nounwind uwtable
define internal ptr @_Py_NewRef(ptr noundef %0) #5 {
  %2 = alloca ptr, align 8
  store ptr %0, ptr %2, align 8, !tbaa !3
  %3 = load ptr, ptr %2, align 8, !tbaa !3
  call void @Py_INCREF(ptr noundef %3)
  %4 = load ptr, ptr %2, align 8, !tbaa !3
  ret ptr %4
}

; Function Attrs: nounwind uwtable
define internal ptr @err_formatunraisable(ptr noundef %0, ptr noundef %1) #0 {
  %3 = alloca ptr, align 8
  %4 = alloca ptr, align 8
  %5 = alloca ptr, align 8
  %6 = alloca ptr, align 8
  %7 = alloca ptr, align 8
  %8 = alloca i64, align 8
  %9 = alloca [10 x ptr], align 16
  %10 = alloca i32, align 4
  store ptr %0, ptr %4, align 8, !tbaa !3
  store ptr %1, ptr %5, align 8, !tbaa !3
  call void @llvm.lifetime.start.p0(i64 8, ptr %6) #10
  call void @llvm.lifetime.start.p0(i64 8, ptr %7) #10
  call void @llvm.lifetime.start.p0(i64 8, ptr %8) #10
  call void @llvm.lifetime.start.p0(i64 80, ptr %9) #10
  call void @llvm.memset.p0.i64(ptr align 16 %9, i8 0, i64 80, i1 false)
  %11 = load ptr, ptr %5, align 8, !tbaa !3
  %12 = getelementptr [10 x ptr], ptr %9, i64 0, i64 0
  %13 = getelementptr [10 x ptr], ptr %9, i64 0, i64 1
  %14 = getelementptr [10 x ptr], ptr %9, i64 0, i64 2
  %15 = getelementptr [10 x ptr], ptr %9, i64 0, i64 3
  %16 = getelementptr [10 x ptr], ptr %9, i64 0, i64 4
  %17 = getelementptr [10 x ptr], ptr %9, i64 0, i64 5
  %18 = getelementptr [10 x ptr], ptr %9, i64 0, i64 6
  %19 = getelementptr [10 x ptr], ptr %9, i64 0, i64 7
  %20 = getelementptr [10 x ptr], ptr %9, i64 0, i64 8
  %21 = getelementptr [10 x ptr], ptr %9, i64 0, i64 9
  %22 = call i32 (ptr, ptr, ...) @PyArg_ParseTuple(ptr noundef %11, ptr noundef @.str.37, ptr noundef %6, ptr noundef %7, ptr noundef %8, ptr noundef %12, ptr noundef %13, ptr noundef %14, ptr noundef %15, ptr noundef %16, ptr noundef %17, ptr noundef %18, ptr noundef %19, ptr noundef %20, ptr noundef %21)
  %23 = icmp ne i32 %22, 0
  br i1 %23, label %25, label %24

24:                                               ; preds = %2
  store ptr null, ptr %3, align 8
  store i32 1, ptr %10, align 4
  br label %60

25:                                               ; preds = %2
  br label %26

26:                                               ; preds = %25
  %27 = load ptr, ptr %6, align 8, !tbaa !3
  %28 = icmp eq ptr %27, @_Py_NoneStruct
  br i1 %28, label %29, label %30

29:                                               ; preds = %26
  store ptr null, ptr %6, align 8, !tbaa !3
  br label %30

30:                                               ; preds = %29, %26
  br label %31

31:                                               ; preds = %30
  br label %32

32:                                               ; preds = %31
  %33 = load ptr, ptr %6, align 8, !tbaa !3
  %34 = icmp ne ptr %33, null
  br i1 %34, label %35, label %38

35:                                               ; preds = %32
  %36 = load ptr, ptr %6, align 8, !tbaa !3
  %37 = call ptr @_Py_NewRef(ptr noundef %36)
  call void @PyErr_SetRaisedException(ptr noundef %37)
  br label %38

38:                                               ; preds = %35, %32
  %39 = load ptr, ptr %7, align 8, !tbaa !22
  %40 = getelementptr [10 x ptr], ptr %9, i64 0, i64 0
  %41 = load ptr, ptr %40, align 16, !tbaa !3
  %42 = getelementptr [10 x ptr], ptr %9, i64 0, i64 1
  %43 = load ptr, ptr %42, align 8, !tbaa !3
  %44 = getelementptr [10 x ptr], ptr %9, i64 0, i64 2
  %45 = load ptr, ptr %44, align 16, !tbaa !3
  %46 = getelementptr [10 x ptr], ptr %9, i64 0, i64 3
  %47 = load ptr, ptr %46, align 8, !tbaa !3
  %48 = getelementptr [10 x ptr], ptr %9, i64 0, i64 4
  %49 = load ptr, ptr %48, align 16, !tbaa !3
  %50 = getelementptr [10 x ptr], ptr %9, i64 0, i64 5
  %51 = load ptr, ptr %50, align 8, !tbaa !3
  %52 = getelementptr [10 x ptr], ptr %9, i64 0, i64 6
  %53 = load ptr, ptr %52, align 16, !tbaa !3
  %54 = getelementptr [10 x ptr], ptr %9, i64 0, i64 7
  %55 = load ptr, ptr %54, align 8, !tbaa !3
  %56 = getelementptr [10 x ptr], ptr %9, i64 0, i64 8
  %57 = load ptr, ptr %56, align 16, !tbaa !3
  %58 = getelementptr [10 x ptr], ptr %9, i64 0, i64 9
  %59 = load ptr, ptr %58, align 8, !tbaa !3
  call void (ptr, ...) @PyErr_FormatUnraisable(ptr noundef %39, ptr noundef %41, ptr noundef %43, ptr noundef %45, ptr noundef %47, ptr noundef %49, ptr noundef %51, ptr noundef %53, ptr noundef %55, ptr noundef %57, ptr noundef %59)
  store ptr @_Py_NoneStruct, ptr %3, align 8
  store i32 1, ptr %10, align 4
  br label %60

60:                                               ; preds = %38, %24
  call void @llvm.lifetime.end.p0(i64 80, ptr %9) #10
  call void @llvm.lifetime.end.p0(i64 8, ptr %8) #10
  call void @llvm.lifetime.end.p0(i64 8, ptr %7) #10
  call void @llvm.lifetime.end.p0(i64 8, ptr %6) #10
  %61 = load ptr, ptr %3, align 8
  ret ptr %61
}