; Function Attrs: nounwind uwtable
define internal noundef ptr @err_formatunraisable(ptr readnone captures(none) %0, ptr noundef %1) #0 {
  %3 = alloca ptr, align 8
  %4 = alloca ptr, align 8
  %5 = alloca i64, align 8
  %6 = alloca [10 x ptr], align 16
  call void @llvm.lifetime.start.p0(i64 8, ptr nonnull %3) #8
  call void @llvm.lifetime.start.p0(i64 8, ptr nonnull %4) #8
  call void @llvm.lifetime.start.p0(i64 8, ptr nonnull %5) #8
  call void @llvm.lifetime.start.p0(i64 80, ptr nonnull %6) #8
  call void @llvm.memset.p0.i64(ptr noundef nonnull align 16 dereferenceable(80) %6, i8 0, i64 80, i1 false)
  %7 = getelementptr inbounds nuw i8, ptr %6, i64 8
  %8 = getelementptr inbounds nuw i8, ptr %6, i64 16
  %9 = getelementptr inbounds nuw i8, ptr %6, i64 24
  %10 = getelementptr inbounds nuw i8, ptr %6, i64 32
  %11 = getelementptr inbounds nuw i8, ptr %6, i64 40
  %12 = getelementptr inbounds nuw i8, ptr %6, i64 48
  %13 = getelementptr inbounds nuw i8, ptr %6, i64 56
  %14 = getelementptr inbounds nuw i8, ptr %6, i64 64
  %15 = getelementptr inbounds nuw i8, ptr %6, i64 72
  %16 = call i32 (ptr, ptr, ...) @PyArg_ParseTuple(ptr noundef %1, ptr noundef nonnull @.str.37, ptr noundef nonnull %3, ptr noundef nonnull %4, ptr noundef nonnull %5, ptr noundef nonnull %6, ptr noundef nonnull %7, ptr noundef nonnull %8, ptr noundef nonnull %9, ptr noundef nonnull %10, ptr noundef nonnull %11, ptr noundef nonnull %12, ptr noundef nonnull %13, ptr noundef nonnull %14, ptr noundef nonnull %15) #8
  %.not = icmp eq i32 %16, 0
  br i1 %.not, label %38, label %17

17:                                               ; preds = %2
  %18 = load ptr, ptr %3, align 8, !tbaa !3
  %19 = icmp eq ptr %18, @_Py_NoneStruct
  br i1 %19, label %.thread, label %20

.thread:                                          ; preds = %17
  store ptr null, ptr %3, align 8, !tbaa !3
  br label %26

20:                                               ; preds = %17
  %.not3 = icmp eq ptr %18, null
  br i1 %.not3, label %26, label %21

21:                                               ; preds = %20
  %22 = load i32, ptr %18, align 8, !tbaa !20
  %23 = icmp slt i32 %22, 0
  br i1 %23, label %_Py_NewRef.exit, label %24

24:                                               ; preds = %21
  %25 = add nuw i32 %22, 1
  store i32 %25, ptr %18, align 8, !tbaa !20
  br label %_Py_NewRef.exit

_Py_NewRef.exit:                                  ; preds = %21, %24
  call void @PyErr_SetRaisedException(ptr noundef nonnull %18) #8
  br label %26

26:                                               ; preds = %.thread, %_Py_NewRef.exit, %20
  %27 = load ptr, ptr %4, align 8, !tbaa !21
  %28 = load ptr, ptr %6, align 16, !tbaa !3
  %29 = load ptr, ptr %7, align 8, !tbaa !3
  %30 = load ptr, ptr %8, align 16, !tbaa !3
  %31 = load ptr, ptr %9, align 8, !tbaa !3
  %32 = load ptr, ptr %10, align 16, !tbaa !3
  %33 = load ptr, ptr %11, align 8, !tbaa !3
  %34 = load ptr, ptr %12, align 16, !tbaa !3
  %35 = load ptr, ptr %13, align 8, !tbaa !3
  %36 = load ptr, ptr %14, align 16, !tbaa !3
  %37 = load ptr, ptr %15, align 8, !tbaa !3
  call void (ptr, ...) @PyErr_FormatUnraisable(ptr noundef %27, ptr noundef %28, ptr noundef %29, ptr noundef %30, ptr noundef %31, ptr noundef %32, ptr noundef %33, ptr noundef %34, ptr noundef %35, ptr noundef %36, ptr noundef %37) #8
  br label %38

38:                                               ; preds = %2, %26
  %.0 = phi ptr [ @_Py_NoneStruct, %26 ], [ null, %2 ]
  call void @llvm.lifetime.end.p0(i64 80, ptr nonnull %6) #8
  call void @llvm.lifetime.end.p0(i64 8, ptr nonnull %5) #8
  call void @llvm.lifetime.end.p0(i64 8, ptr nonnull %4) #8
  call void @llvm.lifetime.end.p0(i64 8, ptr nonnull %3) #8
  ret ptr %.0
}